; Function Attrs: nounwind uwtable
define noundef i32 @agerr(i32 noundef %0, ptr noundef readonly captures(none) %1, ...) local_unnamed_addr #2 {
  %3 = alloca [1 x %struct.__va_list_tag], align 16
  call void @llvm.lifetime.start.p0(i64 24, ptr nonnull %3) #19
  call void @llvm.va_start.p0(ptr nonnull %3)
  call fastcc void @agerr_va(i32 noundef %0, ptr noundef %1, ptr noundef %3)
  call void @llvm.va_end.p0(ptr nonnull %3)
  call void @llvm.lifetime.end.p0(i64 24, ptr nonnull %3) #19
  ret i32 0
}